   1               		.file	"main.c"
   2               	__SREG__ = 0x3f
   3               	__SP_H__ = 0x3e
   4               	__SP_L__ = 0x3d
   5               	__CCP__  = 0x34
   6               	__tmp_reg__ = 0
   7               	__zero_reg__ = 1
  15               	.Ltext0:
  16               	.global	pinChange
  18               	pinChange:
  19               	.LFB6:
  20               	.LM1:
  21               	.LVL0:
  22               	/* prologue: function */
  23               	/* frame size = 0 */
  24               	.LM2:
  25 0000 672B      		or r22,r23
  26 0002 01F0      		breq .+2
  27 0004 00C0      		rjmp .L2
  28               	.LM3:
  29 0006 0097      		sbiw r24,0
  30 0008 01F4      		brne .L3
  31               	.LM4:
  32 000a D898      		cbi 59-32,0
  33 000c 0895      		ret
  34               	.L3:
  35               	.LM5:
  36 000e 8130      		cpi r24,1
  37 0010 9105      		cpc r25,__zero_reg__
  38 0012 01F4      		brne .L5
  39               	.LM6:
  40 0014 D998      		cbi 59-32,1
  41 0016 0895      		ret
  42               	.L5:
  43               	.LM7:
  44 0018 8230      		cpi r24,2
  45 001a 9105      		cpc r25,__zero_reg__
  46 001c 01F4      		brne .L6
  47               	.LM8:
  48 001e DA98      		cbi 59-32,2
  49 0020 0895      		ret
  50               	.L6:
  51               	.LM9:
  52 0022 8330      		cpi r24,3
  53 0024 9105      		cpc r25,__zero_reg__
  54 0026 01F4      		brne .L7
  55               	.LM10:
  56 0028 DB98      		cbi 59-32,3
  57 002a 0895      		ret
  58               	.L7:
  59               	.LM11:
  60 002c 8430      		cpi r24,4
  61 002e 9105      		cpc r25,__zero_reg__
  62 0030 01F4      		brne .L8
  63               	.LM12:
  64 0032 DC98      		cbi 59-32,4
  65 0034 0895      		ret
  66               	.L8:
  67               	.LM13:
  68 0036 8530      		cpi r24,5
  69 0038 9105      		cpc r25,__zero_reg__
  70 003a 01F4      		brne .L9
  71               	.LM14:
  72 003c DD98      		cbi 59-32,5
  73 003e 0895      		ret
  74               	.L9:
  75               	.LM15:
  76 0040 8630      		cpi r24,6
  77 0042 9105      		cpc r25,__zero_reg__
  78 0044 01F4      		brne .L10
  79               	.LM16:
  80 0046 DE98      		cbi 59-32,6
  81 0048 0895      		ret
  82               	.L10:
  83               	.LM17:
  84 004a 8730      		cpi r24,7
  85 004c 9105      		cpc r25,__zero_reg__
  86 004e 01F4      		brne .L11
  87               	.LM18:
  88 0050 DF98      		cbi 59-32,7
  89 0052 0895      		ret
  90               	.L11:
  91               	.LM19:
  92 0054 8A30      		cpi r24,10
  93 0056 9105      		cpc r25,__zero_reg__
  94 0058 01F4      		brne .L12
  95               	.LM20:
  96 005a C098      		cbi 56-32,0
  97 005c 0895      		ret
  98               	.L12:
  99               	.LM21:
 100 005e 8B30      		cpi r24,11
 101 0060 9105      		cpc r25,__zero_reg__
 102 0062 01F4      		brne .L13
 103               	.LM22:
 104 0064 C198      		cbi 56-32,1
 105 0066 0895      		ret
 106               	.L13:
 107               	.LM23:
 108 0068 8C30      		cpi r24,12
 109 006a 9105      		cpc r25,__zero_reg__
 110 006c 01F4      		brne .L14
 111               	.LM24:
 112 006e C298      		cbi 56-32,2
 113 0070 0895      		ret
 114               	.L14:
 115               	.LM25:
 116 0072 8D30      		cpi r24,13
 117 0074 9105      		cpc r25,__zero_reg__
 118 0076 01F4      		brne .L15
 119               	.LM26:
 120 0078 C398      		cbi 56-32,3
 121 007a 0895      		ret
 122               	.L15:
 123               	.LM27:
 124 007c 8E30      		cpi r24,14
 125 007e 9105      		cpc r25,__zero_reg__
 126 0080 01F4      		brne .L16
 127               	.LM28:
 128 0082 C498      		cbi 56-32,4
 129 0084 0895      		ret
 130               	.L16:
 131               	.LM29:
 132 0086 8F30      		cpi r24,15
 133 0088 9105      		cpc r25,__zero_reg__
 134 008a 01F4      		brne .L17
 135               	.LM30:
 136 008c C598      		cbi 56-32,5
 137 008e 0895      		ret
 138               	.L17:
 139               	.LM31:
 140 0090 8031      		cpi r24,16
 141 0092 9105      		cpc r25,__zero_reg__
 142 0094 01F4      		brne .L18
 143               	.LM32:
 144 0096 C698      		cbi 56-32,6
 145 0098 0895      		ret
 146               	.L18:
 147               	.LM33:
 148 009a 8131      		cpi r24,17
 149 009c 9105      		cpc r25,__zero_reg__
 150 009e 01F4      		brne .L19
 151               	.LM34:
 152 00a0 C798      		cbi 56-32,7
 153 00a2 0895      		ret
 154               	.L19:
 155               	.LM35:
 156 00a4 8431      		cpi r24,20
 157 00a6 9105      		cpc r25,__zero_reg__
 158 00a8 01F4      		brne .L20
 159               	.LM36:
 160 00aa A898      		cbi 53-32,0
 161 00ac 0895      		ret
 162               	.L20:
 163               	.LM37:
 164 00ae 8531      		cpi r24,21
 165 00b0 9105      		cpc r25,__zero_reg__
 166 00b2 01F4      		brne .L21
 167               	.LM38:
 168 00b4 A998      		cbi 53-32,1
 169 00b6 0895      		ret
 170               	.L21:
 171               	.LM39:
 172 00b8 8631      		cpi r24,22
 173 00ba 9105      		cpc r25,__zero_reg__
 174 00bc 01F4      		brne .L22
 175               	.LM40:
 176 00be AA98      		cbi 53-32,2
 177 00c0 0895      		ret
 178               	.L22:
 179               	.LM41:
 180 00c2 8731      		cpi r24,23
 181 00c4 9105      		cpc r25,__zero_reg__
 182 00c6 01F4      		brne .L23
 183               	.LM42:
 184 00c8 AB98      		cbi 53-32,3
 185 00ca 0895      		ret
 186               	.L23:
 187               	.LM43:
 188 00cc 8831      		cpi r24,24
 189 00ce 9105      		cpc r25,__zero_reg__
 190 00d0 01F4      		brne .L24
 191               	.LM44:
 192 00d2 AC98      		cbi 53-32,4
 193 00d4 0895      		ret
 194               	.L24:
 195               	.LM45:
 196 00d6 8931      		cpi r24,25
 197 00d8 9105      		cpc r25,__zero_reg__
 198 00da 01F4      		brne .L25
 199               	.LM46:
 200 00dc AD98      		cbi 53-32,5
 201 00de 0895      		ret
 202               	.L25:
 203               	.LM47:
 204 00e0 8A31      		cpi r24,26
 205 00e2 9105      		cpc r25,__zero_reg__
 206 00e4 01F4      		brne .L26
 207               	.LM48:
 208 00e6 AE98      		cbi 53-32,6
 209 00e8 0895      		ret
 210               	.L26:
 211               	.LM49:
 212 00ea 8B31      		cpi r24,27
 213 00ec 9105      		cpc r25,__zero_reg__
 214 00ee 01F4      		brne .L27
 215               	.LM50:
 216 00f0 AF98      		cbi 53-32,7
 217 00f2 0895      		ret
 218               	.L27:
 219               	.LM51:
 220 00f4 8E31      		cpi r24,30
 221 00f6 9105      		cpc r25,__zero_reg__
 222 00f8 01F4      		brne .L28
 223               	.LM52:
 224 00fa 9098      		cbi 50-32,0
 225 00fc 0895      		ret
 226               	.L28:
 227               	.LM53:
 228 00fe 8F31      		cpi r24,31
 229 0100 9105      		cpc r25,__zero_reg__
 230 0102 01F4      		brne .L29
 231               	.LM54:
 232 0104 9198      		cbi 50-32,1
 233 0106 0895      		ret
 234               	.L29:
 235               	.LM55:
 236 0108 8032      		cpi r24,32
 237 010a 9105      		cpc r25,__zero_reg__
 238 010c 01F4      		brne .L30
 239               	.LM56:
 240 010e 9298      		cbi 50-32,2
 241 0110 0895      		ret
 242               	.L30:
 243               	.LM57:
 244 0112 8132      		cpi r24,33
 245 0114 9105      		cpc r25,__zero_reg__
 246 0116 01F4      		brne .L31
 247               	.LM58:
 248 0118 9398      		cbi 50-32,3
 249 011a 0895      		ret
 250               	.L31:
 251               	.LM59:
 252 011c 8232      		cpi r24,34
 253 011e 9105      		cpc r25,__zero_reg__
 254 0120 01F4      		brne .L32
 255               	.LM60:
 256 0122 9498      		cbi 50-32,4
 257 0124 0895      		ret
 258               	.L32:
 259               	.LM61:
 260 0126 8332      		cpi r24,35
 261 0128 9105      		cpc r25,__zero_reg__
 262 012a 01F4      		brne .L33
 263               	.LM62:
 264 012c 9598      		cbi 50-32,5
 265 012e 0895      		ret
 266               	.L33:
 267               	.LM63:
 268 0130 8432      		cpi r24,36
 269 0132 9105      		cpc r25,__zero_reg__
 270 0134 01F4      		brne .L34
 271               	.LM64:
 272 0136 9698      		cbi 50-32,6
 273 0138 0895      		ret
 274               	.L34:
 275               	.LM65:
 276 013a 8597      		sbiw r24,37
 277 013c 01F0      		breq .+2
 278 013e 00C0      		rjmp .L66
 279               	.LM66:
 280 0140 9798      		cbi 50-32,7
 281 0142 0895      		ret
 282               	.L2:
 283               	.LM67:
 284 0144 0097      		sbiw r24,0
 285 0146 01F4      		brne .L35
 286               	.LM68:
 287 0148 D89A      		sbi 59-32,0
 288 014a 0895      		ret
 289               	.L35:
 290               	.LM69:
 291 014c 8130      		cpi r24,1
 292 014e 9105      		cpc r25,__zero_reg__
 293 0150 01F4      		brne .L36
 294               	.LM70:
 295 0152 D99A      		sbi 59-32,1
 296 0154 0895      		ret
 297               	.L36:
 298               	.LM71:
 299 0156 8230      		cpi r24,2
 300 0158 9105      		cpc r25,__zero_reg__
 301 015a 01F4      		brne .L37
 302               	.LM72:
 303 015c DA9A      		sbi 59-32,2
 304 015e 0895      		ret
 305               	.L37:
 306               	.LM73:
 307 0160 8330      		cpi r24,3
 308 0162 9105      		cpc r25,__zero_reg__
 309 0164 01F4      		brne .L38
 310               	.LM74:
 311 0166 DB9A      		sbi 59-32,3
 312 0168 0895      		ret
 313               	.L38:
 314               	.LM75:
 315 016a 8430      		cpi r24,4
 316 016c 9105      		cpc r25,__zero_reg__
 317 016e 01F4      		brne .L39
 318               	.LM76:
 319 0170 DC9A      		sbi 59-32,4
 320 0172 0895      		ret
 321               	.L39:
 322               	.LM77:
 323 0174 8530      		cpi r24,5
 324 0176 9105      		cpc r25,__zero_reg__
 325 0178 01F4      		brne .L40
 326               	.LM78:
 327 017a DD9A      		sbi 59-32,5
 328 017c 0895      		ret
 329               	.L40:
 330               	.LM79:
 331 017e 8630      		cpi r24,6
 332 0180 9105      		cpc r25,__zero_reg__
 333 0182 01F4      		brne .L41
 334               	.LM80:
 335 0184 DE9A      		sbi 59-32,6
 336 0186 0895      		ret
 337               	.L41:
 338               	.LM81:
 339 0188 8730      		cpi r24,7
 340 018a 9105      		cpc r25,__zero_reg__
 341 018c 01F4      		brne .L42
 342               	.LM82:
 343 018e DF9A      		sbi 59-32,7
 344 0190 0895      		ret
 345               	.L42:
 346               	.LM83:
 347 0192 8A30      		cpi r24,10
 348 0194 9105      		cpc r25,__zero_reg__
 349 0196 01F4      		brne .L43
 350               	.LM84:
 351 0198 C09A      		sbi 56-32,0
 352 019a 0895      		ret
 353               	.L43:
 354               	.LM85:
 355 019c 8B30      		cpi r24,11
 356 019e 9105      		cpc r25,__zero_reg__
 357 01a0 01F4      		brne .L44
 358               	.LM86:
 359 01a2 C19A      		sbi 56-32,1
 360 01a4 0895      		ret
 361               	.L44:
 362               	.LM87:
 363 01a6 8C30      		cpi r24,12
 364 01a8 9105      		cpc r25,__zero_reg__
 365 01aa 01F4      		brne .L45
 366               	.LM88:
 367 01ac C29A      		sbi 56-32,2
 368 01ae 0895      		ret
 369               	.L45:
 370               	.LM89:
 371 01b0 8D30      		cpi r24,13
 372 01b2 9105      		cpc r25,__zero_reg__
 373 01b4 01F4      		brne .L46
 374               	.LM90:
 375 01b6 C39A      		sbi 56-32,3
 376 01b8 0895      		ret
 377               	.L46:
 378               	.LM91:
 379 01ba 8E30      		cpi r24,14
 380 01bc 9105      		cpc r25,__zero_reg__
 381 01be 01F4      		brne .L47
 382               	.LM92:
 383 01c0 C49A      		sbi 56-32,4
 384 01c2 0895      		ret
 385               	.L47:
 386               	.LM93:
 387 01c4 8F30      		cpi r24,15
 388 01c6 9105      		cpc r25,__zero_reg__
 389 01c8 01F4      		brne .L48
 390               	.LM94:
 391 01ca C59A      		sbi 56-32,5
 392 01cc 0895      		ret
 393               	.L48:
 394               	.LM95:
 395 01ce 8031      		cpi r24,16
 396 01d0 9105      		cpc r25,__zero_reg__
 397 01d2 01F4      		brne .L49
 398               	.LM96:
 399 01d4 C69A      		sbi 56-32,6
 400 01d6 0895      		ret
 401               	.L49:
 402               	.LM97:
 403 01d8 8131      		cpi r24,17
 404 01da 9105      		cpc r25,__zero_reg__
 405 01dc 01F4      		brne .L50
 406               	.LM98:
 407 01de C79A      		sbi 56-32,7
 408 01e0 0895      		ret
 409               	.L50:
 410               	.LM99:
 411 01e2 8431      		cpi r24,20
 412 01e4 9105      		cpc r25,__zero_reg__
 413 01e6 01F4      		brne .L51
 414               	.LM100:
 415 01e8 A89A      		sbi 53-32,0
 416 01ea 0895      		ret
 417               	.L51:
 418               	.LM101:
 419 01ec 8531      		cpi r24,21
 420 01ee 9105      		cpc r25,__zero_reg__
 421 01f0 01F4      		brne .L52
 422               	.LM102:
 423 01f2 A99A      		sbi 53-32,1
 424 01f4 0895      		ret
 425               	.L52:
 426               	.LM103:
 427 01f6 8631      		cpi r24,22
 428 01f8 9105      		cpc r25,__zero_reg__
 429 01fa 01F4      		brne .L53
 430               	.LM104:
 431 01fc AA9A      		sbi 53-32,2
 432 01fe 0895      		ret
 433               	.L53:
 434               	.LM105:
 435 0200 8731      		cpi r24,23
 436 0202 9105      		cpc r25,__zero_reg__
 437 0204 01F4      		brne .L54
 438               	.LM106:
 439 0206 AB9A      		sbi 53-32,3
 440 0208 0895      		ret
 441               	.L54:
 442               	.LM107:
 443 020a 8831      		cpi r24,24
 444 020c 9105      		cpc r25,__zero_reg__
 445 020e 01F4      		brne .L55
 446               	.LM108:
 447 0210 AC9A      		sbi 53-32,4
 448 0212 0895      		ret
 449               	.L55:
 450               	.LM109:
 451 0214 8931      		cpi r24,25
 452 0216 9105      		cpc r25,__zero_reg__
 453 0218 01F4      		brne .L56
 454               	.LM110:
 455 021a AD9A      		sbi 53-32,5
 456 021c 0895      		ret
 457               	.L56:
 458               	.LM111:
 459 021e 8A31      		cpi r24,26
 460 0220 9105      		cpc r25,__zero_reg__
 461 0222 01F4      		brne .L57
 462               	.LM112:
 463 0224 AE9A      		sbi 53-32,6
 464 0226 0895      		ret
 465               	.L57:
 466               	.LM113:
 467 0228 8B31      		cpi r24,27
 468 022a 9105      		cpc r25,__zero_reg__
 469 022c 01F4      		brne .L58
 470               	.LM114:
 471 022e AF9A      		sbi 53-32,7
 472 0230 0895      		ret
 473               	.L58:
 474               	.LM115:
 475 0232 8E31      		cpi r24,30
 476 0234 9105      		cpc r25,__zero_reg__
 477 0236 01F4      		brne .L59
 478               	.LM116:
 479 0238 909A      		sbi 50-32,0
 480 023a 0895      		ret
 481               	.L59:
 482               	.LM117:
 483 023c 8F31      		cpi r24,31
 484 023e 9105      		cpc r25,__zero_reg__
 485 0240 01F4      		brne .L60
 486               	.LM118:
 487 0242 919A      		sbi 50-32,1
 488 0244 0895      		ret
 489               	.L60:
 490               	.LM119:
 491 0246 8032      		cpi r24,32
 492 0248 9105      		cpc r25,__zero_reg__
 493 024a 01F4      		brne .L61
 494               	.LM120:
 495 024c 929A      		sbi 50-32,2
 496 024e 0895      		ret
 497               	.L61:
 498               	.LM121:
 499 0250 8132      		cpi r24,33
 500 0252 9105      		cpc r25,__zero_reg__
 501 0254 01F4      		brne .L62
 502               	.LM122:
 503 0256 939A      		sbi 50-32,3
 504 0258 0895      		ret
 505               	.L62:
 506               	.LM123:
 507 025a 8232      		cpi r24,34
 508 025c 9105      		cpc r25,__zero_reg__
 509 025e 01F4      		brne .L63
 510               	.LM124:
 511 0260 949A      		sbi 50-32,4
 512 0262 0895      		ret
 513               	.L63:
 514               	.LM125:
 515 0264 8332      		cpi r24,35
 516 0266 9105      		cpc r25,__zero_reg__
 517 0268 01F4      		brne .L64
 518               	.LM126:
 519 026a 959A      		sbi 50-32,5
 520 026c 0895      		ret
 521               	.L64:
 522               	.LM127:
 523 026e 8432      		cpi r24,36
 524 0270 9105      		cpc r25,__zero_reg__
 525 0272 01F4      		brne .L65
 526               	.LM128:
 527 0274 969A      		sbi 50-32,6
 528 0276 0895      		ret
 529               	.L65:
 530               	.LM129:
 531 0278 8597      		sbiw r24,37
 532 027a 01F4      		brne .L66
 533               	.LM130:
 534 027c 979A      		sbi 50-32,7
 535               	.L66:
 536 027e 0895      		ret
 537               	.LFE6:
 539               	.global	Lcd8_Port
 541               	Lcd8_Port:
 542               	.LFB7:
 543               	.LM131:
 544               	.LVL1:
 545 0280 0F93      		push r16
 546 0282 1F93      		push r17
 547               	/* prologue: function */
 548               	/* frame size = 0 */
 549 0284 082F      		mov r16,r24
 550               	.LM132:
 551 0286 182F      		mov r17,r24
 552 0288 80FF      		sbrs r24,0
 553 028a 00C0      		rjmp .L68
 554               	.LVL2:
 555               	.LM133:
 556 028c 8EE1      		ldi r24,lo8(30)
 557 028e 90E0      		ldi r25,hi8(30)
 558 0290 61E0      		ldi r22,lo8(1)
 559 0292 70E0      		ldi r23,hi8(1)
 560 0294 00C0      		rjmp .L85
 561               	.L68:
 562               	.LM134:
 563 0296 8EE1      		ldi r24,lo8(30)
 564 0298 90E0      		ldi r25,hi8(30)
 565 029a 60E0      		ldi r22,lo8(0)
 566 029c 70E0      		ldi r23,hi8(0)
 567               	.L85:
 568 029e 0E94 0000 		call pinChange
 569               	.LM135:
 570 02a2 11FF      		sbrs r17,1
 571 02a4 00C0      		rjmp .L70
 572               	.LM136:
 573 02a6 8FE1      		ldi r24,lo8(31)
 574 02a8 90E0      		ldi r25,hi8(31)
 575 02aa 61E0      		ldi r22,lo8(1)
 576 02ac 70E0      		ldi r23,hi8(1)
 577 02ae 00C0      		rjmp .L86
 578               	.L70:
 579               	.LM137:
 580 02b0 8FE1      		ldi r24,lo8(31)
 581 02b2 90E0      		ldi r25,hi8(31)
 582 02b4 60E0      		ldi r22,lo8(0)
 583 02b6 70E0      		ldi r23,hi8(0)
 584               	.L86:
 585 02b8 0E94 0000 		call pinChange
 586               	.LM138:
 587 02bc 12FF      		sbrs r17,2
 588 02be 00C0      		rjmp .L72
 589               	.LM139:
 590 02c0 80E2      		ldi r24,lo8(32)
 591 02c2 90E0      		ldi r25,hi8(32)
 592 02c4 61E0      		ldi r22,lo8(1)
 593 02c6 70E0      		ldi r23,hi8(1)
 594 02c8 00C0      		rjmp .L87
 595               	.L72:
 596               	.LM140:
 597 02ca 80E2      		ldi r24,lo8(32)
 598 02cc 90E0      		ldi r25,hi8(32)
 599 02ce 60E0      		ldi r22,lo8(0)
 600 02d0 70E0      		ldi r23,hi8(0)
 601               	.L87:
 602 02d2 0E94 0000 		call pinChange
 603               	.LM141:
 604 02d6 13FF      		sbrs r17,3
 605 02d8 00C0      		rjmp .L74
 606               	.LM142:
 607 02da 81E2      		ldi r24,lo8(33)
 608 02dc 90E0      		ldi r25,hi8(33)
 609 02de 61E0      		ldi r22,lo8(1)
 610 02e0 70E0      		ldi r23,hi8(1)
 611 02e2 00C0      		rjmp .L88
 612               	.L74:
 613               	.LM143:
 614 02e4 81E2      		ldi r24,lo8(33)
 615 02e6 90E0      		ldi r25,hi8(33)
 616 02e8 60E0      		ldi r22,lo8(0)
 617 02ea 70E0      		ldi r23,hi8(0)
 618               	.L88:
 619 02ec 0E94 0000 		call pinChange
 620               	.LM144:
 621 02f0 14FF      		sbrs r17,4
 622 02f2 00C0      		rjmp .L76
 623               	.LM145:
 624 02f4 82E2      		ldi r24,lo8(34)
 625 02f6 90E0      		ldi r25,hi8(34)
 626 02f8 61E0      		ldi r22,lo8(1)
 627 02fa 70E0      		ldi r23,hi8(1)
 628 02fc 00C0      		rjmp .L89
 629               	.L76:
 630               	.LM146:
 631 02fe 82E2      		ldi r24,lo8(34)
 632 0300 90E0      		ldi r25,hi8(34)
 633 0302 60E0      		ldi r22,lo8(0)
 634 0304 70E0      		ldi r23,hi8(0)
 635               	.L89:
 636 0306 0E94 0000 		call pinChange
 637               	.LM147:
 638 030a 15FF      		sbrs r17,5
 639 030c 00C0      		rjmp .L78
 640               	.LM148:
 641 030e 83E2      		ldi r24,lo8(35)
 642 0310 90E0      		ldi r25,hi8(35)
 643 0312 61E0      		ldi r22,lo8(1)
 644 0314 70E0      		ldi r23,hi8(1)
 645 0316 00C0      		rjmp .L90
 646               	.L78:
 647               	.LM149:
 648 0318 83E2      		ldi r24,lo8(35)
 649 031a 90E0      		ldi r25,hi8(35)
 650 031c 60E0      		ldi r22,lo8(0)
 651 031e 70E0      		ldi r23,hi8(0)
 652               	.L90:
 653 0320 0E94 0000 		call pinChange
 654               	.LM150:
 655 0324 16FF      		sbrs r17,6
 656 0326 00C0      		rjmp .L80
 657               	.LM151:
 658 0328 84E2      		ldi r24,lo8(36)
 659 032a 90E0      		ldi r25,hi8(36)
 660 032c 61E0      		ldi r22,lo8(1)
 661 032e 70E0      		ldi r23,hi8(1)
 662 0330 00C0      		rjmp .L91
 663               	.L80:
 664               	.LM152:
 665 0332 84E2      		ldi r24,lo8(36)
 666 0334 90E0      		ldi r25,hi8(36)
 667 0336 60E0      		ldi r22,lo8(0)
 668 0338 70E0      		ldi r23,hi8(0)
 669               	.L91:
 670 033a 0E94 0000 		call pinChange
 671               	.LM153:
 672 033e 07FF      		sbrs r16,7
 673 0340 00C0      		rjmp .L82
 674               	.LM154:
 675 0342 85E2      		ldi r24,lo8(37)
 676 0344 90E0      		ldi r25,hi8(37)
 677 0346 61E0      		ldi r22,lo8(1)
 678 0348 70E0      		ldi r23,hi8(1)
 679 034a 00C0      		rjmp .L92
 680               	.L82:
 681               	.LM155:
 682 034c 85E2      		ldi r24,lo8(37)
 683 034e 90E0      		ldi r25,hi8(37)
 684 0350 60E0      		ldi r22,lo8(0)
 685 0352 70E0      		ldi r23,hi8(0)
 686               	.L92:
 687 0354 0E94 0000 		call pinChange
 688               	/* epilogue start */
 689               	.LM156:
 690 0358 1F91      		pop r17
 691 035a 0F91      		pop r16
 692               	.LVL3:
 693 035c 0895      		ret
 694               	.LFE7:
 696               	.global	Lcd8_Cmd
 698               	Lcd8_Cmd:
 699               	.LFB8:
 700               	.LM157:
 701               	.LVL4:
 702 035e 0F93      		push r16
 703 0360 1F93      		push r17
 704               	/* prologue: function */
 705               	/* frame size = 0 */
 706 0362 182F      		mov r17,r24
 707               	.LM158:
 708 0364 8AE1      		ldi r24,lo8(26)
 709 0366 90E0      		ldi r25,hi8(26)
 710               	.LVL5:
 711 0368 60E0      		ldi r22,lo8(0)
 712 036a 70E0      		ldi r23,hi8(0)
 713 036c 0E94 0000 		call pinChange
 714               	.LM159:
 715 0370 812F      		mov r24,r17
 716 0372 0E94 0000 		call Lcd8_Port
 717               	.LM160:
 718 0376 8BE1      		ldi r24,lo8(27)
 719 0378 90E0      		ldi r25,hi8(27)
 720 037a 61E0      		ldi r22,lo8(1)
 721 037c 70E0      		ldi r23,hi8(1)
 722 037e 0E94 0000 		call pinChange
 723               	.LBB116:
 724               	.LBB117:
 725               	.LBB118:
 726               	.LBB119:
 727               	.LM161:
 728 0382 00ED      		ldi r16,lo8(2000)
 729 0384 17E0      		ldi r17,hi8(2000)
 730 0386 C801      		movw r24,r16
 731               	.LVL6:
 732               	/* #APP */
 733               	 ;  105 "c:/winavr-20100110/lib/gcc/../../avr/include/util/delay_basic.h" 1
 734 0388 0197      		1: sbiw r24,1
 735 038a 01F4      		brne 1b
 736               	 ;  0 "" 2
 737               	/* #NOAPP */
 738               	.LBE119:
 739               	.LBE118:
 740               	.LBE117:
 741               	.LBE116:
 742               	.LM162:
 743 038c 8BE1      		ldi r24,lo8(27)
 744 038e 90E0      		ldi r25,hi8(27)
 745               	.LVL7:
 746 0390 60E0      		ldi r22,lo8(0)
 747 0392 70E0      		ldi r23,hi8(0)
 748 0394 0E94 0000 		call pinChange
 749               	.LBB120:
 750               	.LBB121:
 751               	.LBB122:
 752               	.LBB123:
 753               	.LM163:
 754 0398 C801      		movw r24,r16
 755               	.LVL8:
 756               	/* #APP */
 757               	 ;  105 "c:/winavr-20100110/lib/gcc/../../avr/include/util/delay_basic.h" 1
 758 039a 0197      		1: sbiw r24,1
 759 039c 01F4      		brne 1b
 760               	 ;  0 "" 2
 761               	/* epilogue start */
 762               	/* #NOAPP */
 763               	.LBE123:
 764               	.LBE122:
 765               	.LBE121:
 766               	.LBE120:
 767               	.LM164:
 768 039e 1F91      		pop r17
 769               	.LVL9:
 770 03a0 0F91      		pop r16
 771 03a2 0895      		ret
 772               	.LFE8:
 774               	.global	Lcd8_Clear
 776               	Lcd8_Clear:
 777               	.LFB9:
 778               	.LM165:
 779               	/* prologue: function */
 780               	/* frame size = 0 */
 781               	.LM166:
 782 03a4 81E0      		ldi r24,lo8(1)
 783 03a6 0E94 0000 		call Lcd8_Cmd
 784               	/* epilogue start */
 785               	.LM167:
 786 03aa 0895      		ret
 787               	.LFE9:
 789               	.global	Lcd8_Set_Cursor
 791               	Lcd8_Set_Cursor:
 792               	.LFB10:
 793               	.LM168:
 794               	.LVL10:
 795               	/* prologue: function */
 796               	/* frame size = 0 */
 797               	.LM169:
 798 03ac 8158      		subi r24,lo8(-(127))
 799               	.LVL11:
 800 03ae E0E0      		ldi r30,lo8(firstAddressForLCD-1)
 801 03b0 F0E0      		ldi r31,hi8(firstAddressForLCD-1)
 802 03b2 E60F      		add r30,r22
 803 03b4 F11D      		adc r31,__zero_reg__
 804 03b6 9081      		ld r25,Z
 805 03b8 890F      		add r24,r25
 806 03ba 0E94 0000 		call Lcd8_Cmd
 807               	.LVL12:
 808               	/* epilogue start */
 809               	.LM170:
 810 03be 0895      		ret
 811               	.LFE10:
 813               	.global	Lcd8_Init
 815               	Lcd8_Init:
 816               	.LFB11:
 817               	.LM171:
 818               	/* prologue: function */
 819               	/* frame size = 0 */
 820               	.LM172:
 821 03c0 8AE1      		ldi r24,lo8(26)
 822 03c2 90E0      		ldi r25,hi8(26)
 823 03c4 60E0      		ldi r22,lo8(0)
 824 03c6 70E0      		ldi r23,hi8(0)
 825 03c8 0E94 0000 		call pinChange
 826               	.LM173:
 827 03cc 8BE1      		ldi r24,lo8(27)
 828 03ce 90E0      		ldi r25,hi8(27)
 829 03d0 60E0      		ldi r22,lo8(0)
 830 03d2 70E0      		ldi r23,hi8(0)
 831 03d4 0E94 0000 		call pinChange
 832               	.LBB124:
 833               	.LBB125:
 834               	.LBB126:
 835               	.LBB127:
 836               	.LM174:
 837 03d8 80E4      		ldi r24,lo8(-25536)
 838 03da 9CE9      		ldi r25,hi8(-25536)
 839               	.LVL13:
 840               	/* #APP */
 841               	 ;  105 "c:/winavr-20100110/lib/gcc/../../avr/include/util/delay_basic.h" 1
 842 03dc 0197      		1: sbiw r24,1
 843 03de 01F4      		brne 1b
 844               	 ;  0 "" 2
 845               	/* #NOAPP */
 846               	.LBE127:
 847               	.LBE126:
 848               	.LBE125:
 849               	.LBE124:
 850               	.LM175:
 851 03e0 80E3      		ldi r24,lo8(48)
 852               	.LVL14:
 853 03e2 0E94 0000 		call Lcd8_Cmd
 854               	.LBB128:
 855               	.LBB129:
 856               	.LBB130:
 857               	.LBB131:
 858               	.LM176:
 859 03e6 80E1      		ldi r24,lo8(10000)
 860 03e8 97E2      		ldi r25,hi8(10000)
 861               	.LVL15:
 862               	/* #APP */
 863               	 ;  105 "c:/winavr-20100110/lib/gcc/../../avr/include/util/delay_basic.h" 1
 864 03ea 0197      		1: sbiw r24,1
 865 03ec 01F4      		brne 1b
 866               	 ;  0 "" 2
 867               	/* #NOAPP */
 868               	.LBE131:
 869               	.LBE130:
 870               	.LBE129:
 871               	.LBE128:
 872               	.LM177:
 873 03ee 80E3      		ldi r24,lo8(48)
 874               	.LVL16:
 875 03f0 0E94 0000 		call Lcd8_Cmd
 876               	.LBB132:
 877               	.LBB133:
 878               	.LBB134:
 879               	.LBB135:
 880               	.LM178:
 881 03f4 80ED      		ldi r24,lo8(2000)
 882 03f6 97E0      		ldi r25,hi8(2000)
 883               	.LVL17:
 884               	/* #APP */
 885               	 ;  105 "c:/winavr-20100110/lib/gcc/../../avr/include/util/delay_basic.h" 1
 886 03f8 0197      		1: sbiw r24,1
 887 03fa 01F4      		brne 1b
 888               	 ;  0 "" 2
 889               	/* #NOAPP */
 890               	.LBE135:
 891               	.LBE134:
 892               	.LBE133:
 893               	.LBE132:
 894               	.LM179:
 895 03fc 80E3      		ldi r24,lo8(48)
 896               	.LVL18:
 897 03fe 0E94 0000 		call Lcd8_Cmd
 898               	.LBB136:
 899               	.LBB137:
 900               	.LBB138:
 901               	.LBB139:
 902               	.LM180:
 903 0402 80E2      		ldi r24,lo8(20000)
 904 0404 9EE4      		ldi r25,hi8(20000)
 905               	.LVL19:
 906               	/* #APP */
 907               	 ;  105 "c:/winavr-20100110/lib/gcc/../../avr/include/util/delay_basic.h" 1
 908 0406 0197      		1: sbiw r24,1
 909 0408 01F4      		brne 1b
 910               	 ;  0 "" 2
 911               	/* #NOAPP */
 912               	.LBE139:
 913               	.LBE138:
 914               	.LBE137:
 915               	.LBE136:
 916               	.LM181:
 917 040a 88E3      		ldi r24,lo8(56)
 918               	.LVL20:
 919 040c 0E94 0000 		call Lcd8_Cmd
 920               	.LM182:
 921 0410 8CE0      		ldi r24,lo8(12)
 922 0412 0E94 0000 		call Lcd8_Cmd
 923               	.LM183:
 924 0416 81E0      		ldi r24,lo8(1)
 925 0418 0E94 0000 		call Lcd8_Cmd
 926               	.LM184:
 927 041c 86E0      		ldi r24,lo8(6)
 928 041e 0E94 0000 		call Lcd8_Cmd
 929               	/* epilogue start */
 930               	.LM185:
 931 0422 0895      		ret
 932               	.LFE11:
 934               	.global	Lcd8_Write_Char
 936               	Lcd8_Write_Char:
 937               	.LFB12:
 938               	.LM186:
 939               	.LVL21:
 940 0424 0F93      		push r16
 941 0426 1F93      		push r17
 942               	/* prologue: function */
 943               	/* frame size = 0 */
 944 0428 182F      		mov r17,r24
 945               	.LM187:
 946 042a 8AE1      		ldi r24,lo8(26)
 947 042c 90E0      		ldi r25,hi8(26)
 948               	.LVL22:
 949 042e 61E0      		ldi r22,lo8(1)
 950 0430 70E0      		ldi r23,hi8(1)
 951 0432 0E94 0000 		call pinChange
 952               	.LM188:
 953 0436 812F      		mov r24,r17
 954 0438 0E94 0000 		call Lcd8_Port
 955               	.LM189:
 956 043c 8BE1      		ldi r24,lo8(27)
 957 043e 90E0      		ldi r25,hi8(27)
 958 0440 61E0      		ldi r22,lo8(1)
 959 0442 70E0      		ldi r23,hi8(1)
 960 0444 0E94 0000 		call pinChange
 961               	.LBB140:
 962               	.LBB141:
 963               	.LBB142:
 964               	.LBB143:
 965               	.LM190:
 966 0448 00ED      		ldi r16,lo8(2000)
 967 044a 17E0      		ldi r17,hi8(2000)
 968 044c C801      		movw r24,r16
 969               	.LVL23:
 970               	/* #APP */
 971               	 ;  105 "c:/winavr-20100110/lib/gcc/../../avr/include/util/delay_basic.h" 1
 972 044e 0197      		1: sbiw r24,1
 973 0450 01F4      		brne 1b
 974               	 ;  0 "" 2
 975               	/* #NOAPP */
 976               	.LBE143:
 977               	.LBE142:
 978               	.LBE141:
 979               	.LBE140:
 980               	.LM191:
 981 0452 8BE1      		ldi r24,lo8(27)
 982 0454 90E0      		ldi r25,hi8(27)
 983               	.LVL24:
 984 0456 60E0      		ldi r22,lo8(0)
 985 0458 70E0      		ldi r23,hi8(0)
 986 045a 0E94 0000 		call pinChange
 987               	.LBB144:
 988               	.LBB145:
 989               	.LBB146:
 990               	.LBB147:
 991               	.LM192:
 992 045e C801      		movw r24,r16
 993               	.LVL25:
 994               	/* #APP */
 995               	 ;  105 "c:/winavr-20100110/lib/gcc/../../avr/include/util/delay_basic.h" 1
 996 0460 0197      		1: sbiw r24,1
 997 0462 01F4      		brne 1b
 998               	 ;  0 "" 2
 999               	/* epilogue start */
 1000               	/* #NOAPP */
 1001               	.LBE147:
 1002               	.LBE146:
 1003               	.LBE145:
 1004               	.LBE144:
 1005               	.LM193:
 1006 0464 1F91      		pop r17
 1007               	.LVL26:
 1008 0466 0F91      		pop r16
 1009 0468 0895      		ret
 1010               	.LFE12:
 1012               	.global	Lcd8_Write_String
 1014               	Lcd8_Write_String:
 1015               	.LFB13:
 1016               	.LM194:
 1017               	.LVL27:
 1018 046a CF93      		push r28
 1019 046c DF93      		push r29
 1020               	/* prologue: function */
 1021               	/* frame size = 0 */
 1022               	.LM195:
 1023 046e EC01      		movw r28,r24
 1024               	.LVL28:
 1025 0470 00C0      		rjmp .L104
 1026               	.L105:
 1027               	.LM196:
 1028 0472 0E94 0000 		call Lcd8_Write_Char
 1029               	.L104:
 1030               	.LM197:
 1031 0476 8991      		ld r24,Y+
 1032 0478 8823      		tst r24
 1033 047a 01F4      		brne .L105
 1034               	/* epilogue start */
 1035               	.LM198:
 1036 047c DF91      		pop r29
 1037 047e CF91      		pop r28
 1038 0480 0895      		ret
 1039               	.LFE13:
 1041               	.global	Lcd8_Shift_Right
 1043               	Lcd8_Shift_Right:
 1044               	.LFB14:
 1045               	.LM199:
 1046               	/* prologue: function */
 1047               	/* frame size = 0 */
 1048               	.LM200:
 1049 0482 8CE1      		ldi r24,lo8(28)
 1050 0484 0E94 0000 		call Lcd8_Cmd
 1051               	/* epilogue start */
 1052               	.LM201:
 1053 0488 0895      		ret
 1054               	.LFE14:
 1056               	.global	Lcd8_Shift_Left
 1058               	Lcd8_Shift_Left:
 1059               	.LFB15:
 1060               	.LM202:
 1061               	/* prologue: function */
 1062               	/* frame size = 0 */
 1063               	.LM203:
 1064 048a 88E1      		ldi r24,lo8(24)
 1065 048c 0E94 0000 		call Lcd8_Cmd
 1066               	/* epilogue start */
 1067               	.LM204:
 1068 0490 0895      		ret
 1069               	.LFE15:
 1071               	.global	Lcd4_Port
 1073               	Lcd4_Port:
 1074               	.LFB16:
 1075               	.LM205:
 1076               	.LVL29:
 1077 0492 CF93      		push r28
 1078 0494 DF93      		push r29
 1079               	/* prologue: function */
 1080               	/* frame size = 0 */
 1081               	.LM206:
 1082 0496 C82F      		mov r28,r24
 1083 0498 80FF      		sbrs r24,0
 1084 049a 00C0      		rjmp .L112
 1085               	.LVL30:
 1086               	.LM207:
 1087 049c 82E2      		ldi r24,lo8(34)
 1088 049e 90E0      		ldi r25,hi8(34)
 1089 04a0 61E0      		ldi r22,lo8(1)
 1090 04a2 70E0      		ldi r23,hi8(1)
 1091 04a4 00C0      		rjmp .L121
 1092               	.L112:
 1093               	.LM208:
 1094 04a6 82E2      		ldi r24,lo8(34)
 1095 04a8 90E0      		ldi r25,hi8(34)
 1096 04aa 60E0      		ldi r22,lo8(0)
 1097 04ac 70E0      		ldi r23,hi8(0)
 1098               	.L121:
 1099 04ae 0E94 0000 		call pinChange
 1100               	.LM209:
 1101 04b2 C1FF      		sbrs r28,1
 1102 04b4 00C0      		rjmp .L114
 1103               	.LM210:
 1104 04b6 83E2      		ldi r24,lo8(35)
 1105 04b8 90E0      		ldi r25,hi8(35)
 1106 04ba 61E0      		ldi r22,lo8(1)
 1107 04bc 70E0      		ldi r23,hi8(1)
 1108 04be 00C0      		rjmp .L122
 1109               	.L114:
 1110               	.LM211:
 1111 04c0 83E2      		ldi r24,lo8(35)
 1112 04c2 90E0      		ldi r25,hi8(35)
 1113 04c4 60E0      		ldi r22,lo8(0)
 1114 04c6 70E0      		ldi r23,hi8(0)
 1115               	.L122:
 1116 04c8 0E94 0000 		call pinChange
 1117               	.LM212:
 1118 04cc C2FF      		sbrs r28,2
 1119 04ce 00C0      		rjmp .L116
 1120               	.LM213:
 1121 04d0 84E2      		ldi r24,lo8(36)
 1122 04d2 90E0      		ldi r25,hi8(36)
 1123 04d4 61E0      		ldi r22,lo8(1)
 1124 04d6 70E0      		ldi r23,hi8(1)
 1125 04d8 00C0      		rjmp .L123
 1126               	.L116:
 1127               	.LM214:
 1128 04da 84E2      		ldi r24,lo8(36)
 1129 04dc 90E0      		ldi r25,hi8(36)
 1130 04de 60E0      		ldi r22,lo8(0)
 1131 04e0 70E0      		ldi r23,hi8(0)
 1132               	.L123:
 1133 04e2 0E94 0000 		call pinChange
 1134               	.LM215:
 1135 04e6 C3FF      		sbrs r28,3
 1136 04e8 00C0      		rjmp .L118
 1137               	.LM216:
 1138 04ea 85E2      		ldi r24,lo8(37)
 1139 04ec 90E0      		ldi r25,hi8(37)
 1140 04ee 61E0      		ldi r22,lo8(1)
 1141 04f0 70E0      		ldi r23,hi8(1)
 1142 04f2 00C0      		rjmp .L124
 1143               	.L118:
 1144               	.LM217:
 1145 04f4 85E2      		ldi r24,lo8(37)
 1146 04f6 90E0      		ldi r25,hi8(37)
 1147 04f8 60E0      		ldi r22,lo8(0)
 1148 04fa 70E0      		ldi r23,hi8(0)
 1149               	.L124:
 1150 04fc 0E94 0000 		call pinChange
 1151               	/* epilogue start */
 1152               	.LM218:
 1153 0500 DF91      		pop r29
 1154 0502 CF91      		pop r28
 1155 0504 0895      		ret
 1156               	.LFE16:
 1158               	.global	Lcd4_Cmd
 1160               	Lcd4_Cmd:
 1161               	.LFB17:
 1162               	.LM219:
 1163               	.LVL31:
 1164 0506 0F93      		push r16
 1165 0508 1F93      		push r17
 1166               	/* prologue: function */
 1167               	/* frame size = 0 */
 1168 050a 182F      		mov r17,r24
 1169               	.LM220:
 1170 050c 8AE1      		ldi r24,lo8(26)
 1171 050e 90E0      		ldi r25,hi8(26)
 1172               	.LVL32:
 1173 0510 60E0      		ldi r22,lo8(0)
 1174 0512 70E0      		ldi r23,hi8(0)
 1175 0514 0E94 0000 		call pinChange
 1176               	.LM221:
 1177 0518 812F      		mov r24,r17
 1178 051a 0E94 0000 		call Lcd4_Port
 1179               	.LM222:
 1180 051e 8BE1      		ldi r24,lo8(27)
 1181 0520 90E0      		ldi r25,hi8(27)
 1182 0522 61E0      		ldi r22,lo8(1)
 1183 0524 70E0      		ldi r23,hi8(1)
 1184 0526 0E94 0000 		call pinChange
 1185               	.LBB148:
 1186               	.LBB149:
 1187               	.LBB150:
 1188               	.LBB151:
 1189               	.LM223:
 1190 052a 00ED      		ldi r16,lo8(2000)
 1191 052c 17E0      		ldi r17,hi8(2000)
 1192 052e C801      		movw r24,r16
 1193               	.LVL33:
 1194               	/* #APP */
 1195               	 ;  105 "c:/winavr-20100110/lib/gcc/../../avr/include/util/delay_basic.h" 1
 1196 0530 0197      		1: sbiw r24,1
 1197 0532 01F4      		brne 1b
 1198               	 ;  0 "" 2
 1199               	/* #NOAPP */
 1200               	.LBE151:
 1201               	.LBE150:
 1202               	.LBE149:
 1203               	.LBE148:
 1204               	.LM224:
 1205 0534 8BE1      		ldi r24,lo8(27)
 1206 0536 90E0      		ldi r25,hi8(27)
 1207               	.LVL34:
 1208 0538 60E0      		ldi r22,lo8(0)
 1209 053a 70E0      		ldi r23,hi8(0)
 1210 053c 0E94 0000 		call pinChange
 1211               	.LBB152:
 1212               	.LBB153:
 1213               	.LBB154:
 1214               	.LBB155:
 1215               	.LM225:
 1216 0540 C801      		movw r24,r16
 1217               	.LVL35:
 1218               	/* #APP */
 1219               	 ;  105 "c:/winavr-20100110/lib/gcc/../../avr/include/util/delay_basic.h" 1
 1220 0542 0197      		1: sbiw r24,1
 1221 0544 01F4      		brne 1b
 1222               	 ;  0 "" 2
 1223               	/* epilogue start */
 1224               	/* #NOAPP */
 1225               	.LBE155:
 1226               	.LBE154:
 1227               	.LBE153:
 1228               	.LBE152:
 1229               	.LM226:
 1230 0546 1F91      		pop r17
 1231               	.LVL36:
 1232 0548 0F91      		pop r16
 1233 054a 0895      		ret
 1234               	.LFE17:
 1236               	.global	Lcd4_Clear
 1238               	Lcd4_Clear:
 1239               	.LFB18:
 1240               	.LM227:
 1241               	/* prologue: function */
 1242               	/* frame size = 0 */
 1243               	.LM228:
 1244 054c 80E0      		ldi r24,lo8(0)
 1245 054e 0E94 0000 		call Lcd4_Cmd
 1246               	.LM229:
 1247 0552 81E0      		ldi r24,lo8(1)
 1248 0554 0E94 0000 		call Lcd4_Cmd
 1249               	/* epilogue start */
 1250               	.LM230:
 1251 0558 0895      		ret
 1252               	.LFE18:
 1254               	.global	Lcd4_Set_Cursor
 1256               	Lcd4_Set_Cursor:
 1257               	.LFB19:
 1258               	.LM231:
 1259               	.LVL37:
 1260 055a 1F93      		push r17
 1261               	/* prologue: function */
 1262               	/* frame size = 0 */
 1263               	.LM232:
 1264 055c 8130      		cpi r24,lo8(1)
 1265 055e 01F4      		brne .L130
 1266               	.LM233:
 1267 0560 162F      		mov r17,r22
 1268               	.LVL38:
 1269 0562 1058      		subi r17,lo8(-(-128))
 1270 0564 00C0      		rjmp .L133
 1271               	.LVL39:
 1272               	.L130:
 1273               	.LM234:
 1274 0566 8230      		cpi r24,lo8(2)
 1275 0568 01F4      		brne .L132
 1276               	.LM235:
 1277 056a 162F      		mov r17,r22
 1278               	.LVL40:
 1279 056c 1054      		subi r17,lo8(-(-64))
 1280               	.L133:
 1281               	.LM236:
 1282 056e 812F      		mov r24,r17
 1283               	.LVL41:
 1284 0570 8295      		swap r24
 1285 0572 8F70      		andi r24,lo8(15)
 1286 0574 0E94 0000 		call Lcd4_Cmd
 1287               	.LVL42:
 1288               	.LM237:
 1289 0578 812F      		mov r24,r17
 1290 057a 8F70      		andi r24,lo8(15)
 1291 057c 0E94 0000 		call Lcd4_Cmd
 1292               	.LVL43:
 1293               	.L132:
 1294               	/* epilogue start */
 1295               	.LM238:
 1296 0580 1F91      		pop r17
 1297               	.LVL44:
 1298 0582 0895      		ret
 1299               	.LFE19:
 1301               	.global	Lcd4_Init
 1303               	Lcd4_Init:
 1304               	.LFB20:
 1305               	.LM239:
 1306               	/* prologue: function */
 1307               	/* frame size = 0 */
 1308               	.LM240:
 1309 0584 80E0      		ldi r24,lo8(0)
 1310 0586 0E94 0000 		call Lcd4_Port
 1311               	.LBB156:
 1312               	.LBB157:
 1313               	.LBB158:
 1314               	.LBB159:
 1315               	.LM241:
 1316 058a 80E4      		ldi r24,lo8(-25536)
 1317 058c 9CE9      		ldi r25,hi8(-25536)
 1318               	.LVL45:
 1319               	/* #APP */
 1320               	 ;  105 "c:/winavr-20100110/lib/gcc/../../avr/include/util/delay_basic.h" 1
 1321 058e 0197      		1: sbiw r24,1
 1322 0590 01F4      		brne 1b
 1323               	 ;  0 "" 2
 1324               	/* #NOAPP */
 1325               	.LBE159:
 1326               	.LBE158:
 1327               	.LBE157:
 1328               	.LBE156:
 1329               	.LM242:
 1330 0592 83E0      		ldi r24,lo8(3)
 1331               	.LVL46:
 1332 0594 0E94 0000 		call Lcd4_Cmd
 1333               	.LBB160:
 1334               	.LBB161:
 1335               	.LBB162:
 1336               	.LBB163:
 1337               	.LM243:
 1338 0598 80E1      		ldi r24,lo8(10000)
 1339 059a 97E2      		ldi r25,hi8(10000)
 1340               	.LVL47:
 1341               	/* #APP */
 1342               	 ;  105 "c:/winavr-20100110/lib/gcc/../../avr/include/util/delay_basic.h" 1
 1343 059c 0197      		1: sbiw r24,1
 1344 059e 01F4      		brne 1b
 1345               	 ;  0 "" 2
 1346               	/* #NOAPP */
 1347               	.LBE163:
 1348               	.LBE162:
 1349               	.LBE161:
 1350               	.LBE160:
 1351               	.LM244:
 1352 05a0 83E0      		ldi r24,lo8(3)
 1353               	.LVL48:
 1354 05a2 0E94 0000 		call Lcd4_Cmd
 1355               	.LBB164:
 1356               	.LBB165:
 1357               	.LBB166:
 1358               	.LBB167:
 1359               	.LM245:
 1360 05a6 80EF      		ldi r24,lo8(22000)
 1361 05a8 95E5      		ldi r25,hi8(22000)
 1362               	.LVL49:
 1363               	/* #APP */
 1364               	 ;  105 "c:/winavr-20100110/lib/gcc/../../avr/include/util/delay_basic.h" 1
 1365 05aa 0197      		1: sbiw r24,1
 1366 05ac 01F4      		brne 1b
 1367               	 ;  0 "" 2
 1368               	/* #NOAPP */
 1369               	.LBE167:
 1370               	.LBE166:
 1371               	.LBE165:
 1372               	.LBE164:
 1373               	.LM246:
 1374 05ae 83E0      		ldi r24,lo8(3)
 1375               	.LVL50:
 1376 05b0 0E94 0000 		call Lcd4_Cmd
 1377               	.LM247:
 1378 05b4 82E0      		ldi r24,lo8(2)
 1379 05b6 0E94 0000 		call Lcd4_Cmd
 1380               	.LM248:
 1381 05ba 82E0      		ldi r24,lo8(2)
 1382 05bc 0E94 0000 		call Lcd4_Cmd
 1383               	.LM249:
 1384 05c0 88E0      		ldi r24,lo8(8)
 1385 05c2 0E94 0000 		call Lcd4_Cmd
 1386               	.LM250:
 1387 05c6 80E0      		ldi r24,lo8(0)
 1388 05c8 0E94 0000 		call Lcd4_Cmd
 1389               	.LM251:
 1390 05cc 8CE0      		ldi r24,lo8(12)
 1391 05ce 0E94 0000 		call Lcd4_Cmd
 1392               	.LM252:
 1393 05d2 80E0      		ldi r24,lo8(0)
 1394 05d4 0E94 0000 		call Lcd4_Cmd
 1395               	.LM253:
 1396 05d8 86E0      		ldi r24,lo8(6)
 1397 05da 0E94 0000 		call Lcd4_Cmd
 1398               	/* epilogue start */
 1399               	.LM254:
 1400 05de 0895      		ret
 1401               	.LFE20:
 1403               	.global	Lcd4_Write_Char
 1405               	Lcd4_Write_Char:
 1406               	.LFB21:
 1407               	.LM255:
 1408               	.LVL51:
 1409 05e0 FF92      		push r15
 1410 05e2 0F93      		push r16
 1411 05e4 1F93      		push r17
 1412               	/* prologue: function */
 1413               	/* frame size = 0 */
 1414 05e6 F82E      		mov r15,r24
 1415               	.LM256:
 1416 05e8 8AE1      		ldi r24,lo8(26)
 1417 05ea 90E0      		ldi r25,hi8(26)
 1418               	.LVL52:
 1419 05ec 61E0      		ldi r22,lo8(1)
 1420 05ee 70E0      		ldi r23,hi8(1)
 1421 05f0 0E94 0000 		call pinChange
 1422               	.LM257:
 1423 05f4 8F2D      		mov r24,r15
 1424 05f6 8295      		swap r24
 1425 05f8 8F70      		andi r24,lo8(15)
 1426 05fa 0E94 0000 		call Lcd4_Port
 1427               	.LM258:
 1428 05fe 8BE1      		ldi r24,lo8(27)
 1429 0600 90E0      		ldi r25,hi8(27)
 1430 0602 61E0      		ldi r22,lo8(1)
 1431 0604 70E0      		ldi r23,hi8(1)
 1432 0606 0E94 0000 		call pinChange
 1433               	.LBB168:
 1434               	.LBB169:
 1435               	.LBB170:
 1436               	.LBB171:
 1437               	.LM259:
 1438 060a 00ED      		ldi r16,lo8(2000)
 1439 060c 17E0      		ldi r17,hi8(2000)
 1440 060e C801      		movw r24,r16
 1441               	.LVL53:
 1442               	/* #APP */
 1443               	 ;  105 "c:/winavr-20100110/lib/gcc/../../avr/include/util/delay_basic.h" 1
 1444 0610 0197      		1: sbiw r24,1
 1445 0612 01F4      		brne 1b
 1446               	 ;  0 "" 2
 1447               	/* #NOAPP */
 1448               	.LBE171:
 1449               	.LBE170:
 1450               	.LBE169:
 1451               	.LBE168:
 1452               	.LM260:
 1453 0614 8BE1      		ldi r24,lo8(27)
 1454 0616 90E0      		ldi r25,hi8(27)
 1455               	.LVL54:
 1456 0618 60E0      		ldi r22,lo8(0)
 1457 061a 70E0      		ldi r23,hi8(0)
 1458 061c 0E94 0000 		call pinChange
 1459               	.LBB172:
 1460               	.LBB173:
 1461               	.LBB174:
 1462               	.LBB175:
 1463               	.LM261:
 1464 0620 C801      		movw r24,r16
 1465               	.LVL55:
 1466               	/* #APP */
 1467               	 ;  105 "c:/winavr-20100110/lib/gcc/../../avr/include/util/delay_basic.h" 1
 1468 0622 0197      		1: sbiw r24,1
 1469 0624 01F4      		brne 1b
 1470               	 ;  0 "" 2
 1471               	/* #NOAPP */
 1472               	.LBE175:
 1473               	.LBE174:
 1474               	.LBE173:
 1475               	.LBE172:
 1476               	.LM262:
 1477 0626 8F2D      		mov r24,r15
 1478               	.LVL56:
 1479 0628 8F70      		andi r24,lo8(15)
 1480 062a 0E94 0000 		call Lcd4_Port
 1481               	.LM263:
 1482 062e 8BE1      		ldi r24,lo8(27)
 1483 0630 90E0      		ldi r25,hi8(27)
 1484 0632 61E0      		ldi r22,lo8(1)
 1485 0634 70E0      		ldi r23,hi8(1)
 1486 0636 0E94 0000 		call pinChange
 1487               	.LBB176:
 1488               	.LBB177:
 1489               	.LBB178:
 1490               	.LBB179:
 1491               	.LM264:
 1492 063a C801      		movw r24,r16
 1493               	.LVL57:
 1494               	/* #APP */
 1495               	 ;  105 "c:/winavr-20100110/lib/gcc/../../avr/include/util/delay_basic.h" 1
 1496 063c 0197      		1: sbiw r24,1
 1497 063e 01F4      		brne 1b
 1498               	 ;  0 "" 2
 1499               	/* #NOAPP */
 1500               	.LBE179:
 1501               	.LBE178:
 1502               	.LBE177:
 1503               	.LBE176:
 1504               	.LM265:
 1505 0640 8BE1      		ldi r24,lo8(27)
 1506 0642 90E0      		ldi r25,hi8(27)
 1507               	.LVL58:
 1508 0644 60E0      		ldi r22,lo8(0)
 1509 0646 70E0      		ldi r23,hi8(0)
 1510 0648 0E94 0000 		call pinChange
 1511               	.LBB180:
 1512               	.LBB181:
 1513               	.LBB182:
 1514               	.LBB183:
 1515               	.LM266:
 1516 064c C801      		movw r24,r16
 1517               	.LVL59:
 1518               	/* #APP */
 1519               	 ;  105 "c:/winavr-20100110/lib/gcc/../../avr/include/util/delay_basic.h" 1
 1520 064e 0197      		1: sbiw r24,1
 1521 0650 01F4      		brne 1b
 1522               	 ;  0 "" 2
 1523               	/* epilogue start */
 1524               	/* #NOAPP */
 1525               	.LBE183:
 1526               	.LBE182:
 1527               	.LBE181:
 1528               	.LBE180:
 1529               	.LM267:
 1530 0652 1F91      		pop r17
 1531 0654 0F91      		pop r16
 1532 0656 FF90      		pop r15
 1533               	.LVL60:
 1534 0658 0895      		ret
 1535               	.LFE21:
 1537               	.global	Lcd4_Write_String
 1539               	Lcd4_Write_String:
 1540               	.LFB22:
 1541               	.LM268:
 1542               	.LVL61:
 1543 065a CF93      		push r28
 1544 065c DF93      		push r29
 1545               	/* prologue: function */
 1546               	/* frame size = 0 */
 1547               	.LM269:
 1548 065e EC01      		movw r28,r24
 1549               	.LVL62:
 1550 0660 00C0      		rjmp .L139
 1551               	.L140:
 1552               	.LM270:
 1553 0662 0E94 0000 		call Lcd4_Write_Char
 1554               	.L139:
 1555               	.LM271:
 1556 0666 8991      		ld r24,Y+
 1557 0668 8823      		tst r24
 1558 066a 01F4      		brne .L140
 1559               	/* epilogue start */
 1560               	.LM272:
 1561 066c DF91      		pop r29
 1562 066e CF91      		pop r28
 1563 0670 0895      		ret
 1564               	.LFE22:
 1566               	.global	Lcd4_Shift_Right
 1568               	Lcd4_Shift_Right:
 1569               	.LFB23:
 1570               	.LM273:
 1571               	/* prologue: function */
 1572               	/* frame size = 0 */
 1573               	.LM274:
 1574 0672 81E0      		ldi r24,lo8(1)
 1575 0674 0E94 0000 		call Lcd4_Cmd
 1576               	.LM275:
 1577 0678 8CE0      		ldi r24,lo8(12)
 1578 067a 0E94 0000 		call Lcd4_Cmd
 1579               	/* epilogue start */
 1580               	.LM276:
 1581 067e 0895      		ret
 1582               	.LFE23:
 1584               	.global	Lcd4_Shift_Left
 1586               	Lcd4_Shift_Left:
 1587               	.LFB24:
 1588               	.LM277:
 1589               	/* prologue: function */
 1590               	/* frame size = 0 */
 1591               	.LM278:
 1592 0680 81E0      		ldi r24,lo8(1)
 1593 0682 0E94 0000 		call Lcd4_Cmd
 1594               	.LM279:
 1595 0686 88E0      		ldi r24,lo8(8)
 1596 0688 0E94 0000 		call Lcd4_Cmd
 1597               	/* epilogue start */
 1598               	.LM280:
 1599 068c 0895      		ret
 1600               	.LFE24:
 1602               		.data
 1603               	.LC0:
 1604 0000 5820 3D20 		.string	"X = "
 1604      00
 1605               	.LC1:
 1606 0005 5920 3D20 		.string	"Y = "
 1606      00
 1607               	.LC2:
 1608 000a 7800      		.string	"x"
 1609               	.LC3:
 1610 000c 2000      		.string	" "
 1611               	.LC4:
 1612 000e 2020 2020 		.string	"      "
 1612      2020 00
 1613               		.text
 1614               	.global	main
 1616               	main:
 1617               	.LFB25:
 1618               	.LM281:
 1619 068e 8F92      		push r8
 1620 0690 9F92      		push r9
 1621 0692 AF92      		push r10
 1622 0694 BF92      		push r11
 1623 0696 CF92      		push r12
 1624 0698 DF92      		push r13
 1625 069a EF92      		push r14
 1626 069c FF92      		push r15
 1627 069e 0F93      		push r16
 1628 06a0 1F93      		push r17
 1629 06a2 DF93      		push r29
 1630 06a4 CF93      		push r28
 1631 06a6 00D0      		rcall .
 1632 06a8 00D0      		rcall .
 1633 06aa CDB7      		in r28,__SP_L__
 1634 06ac DEB7      		in r29,__SP_H__
 1635               	/* prologue: function */
 1636               	/* frame size = 4 */
 1637               	.LM282:
 1638 06ae 8FEF      		ldi r24,lo8(-1)
 1639 06b0 81BB      		out 49-32,r24
 1640               	.LM283:
 1641 06b2 84BB      		out 52-32,r24
 1642               	.LM284:
 1643 06b4 0E94 0000 		call Lcd8_Init
 1644 06b8 21E0      		ldi r18,lo8(1)
 1645 06ba E22E      		mov r14,r18
 1646 06bc F12C      		mov r15,__zero_reg__
 1647               	.LVL63:
 1648               	.LBB184:
 1649               	.LBB185:
 1650               	.LM285:
 1651 06be 6E01      		movw r12,r28
 1652 06c0 0894      		sec
 1653 06c2 C11C      		adc r12,__zero_reg__
 1654 06c4 D11C      		adc r13,__zero_reg__
 1655               	.LBB187:
 1656               	.LBB188:
 1657               	.LBB189:
 1658               	.LBB190:
 1659               	.LM286:
 1660 06c6 98EC      		ldi r25,lo8(200)
 1661 06c8 892E      		mov r8,r25
 1662 06ca 912C      		mov r9,__zero_reg__
 1663 06cc 00C0      		rjmp .L155
 1664               	.LVL64:
 1665               	.L149:
 1666               	.LBE190:
 1667               	.LBE189:
 1668               	.LBE188:
 1669               	.LBE187:
 1670               	.LM287:
 1671 06ce C801      		movw r24,r16
 1672 06d0 B601      		movw r22,r12
 1673 06d2 4AE0      		ldi r20,lo8(10)
 1674 06d4 50E0      		ldi r21,hi8(10)
 1675 06d6 0E94 0000 		call itoa
 1676               	.LM288:
 1677 06da 8CE0      		ldi r24,lo8(12)
 1678 06dc 63E0      		ldi r22,lo8(3)
 1679 06de 0E94 0000 		call Lcd8_Set_Cursor
 1680               	.LM289:
 1681 06e2 80E0      		ldi r24,lo8(.LC0)
 1682 06e4 90E0      		ldi r25,hi8(.LC0)
 1683 06e6 0E94 0000 		call Lcd8_Write_String
 1684               	.LM290:
 1685 06ea C601      		movw r24,r12
 1686 06ec 0E94 0000 		call Lcd8_Write_String
 1687               	.LM291:
 1688 06f0 C701      		movw r24,r14
 1689 06f2 B601      		movw r22,r12
 1690 06f4 4AE0      		ldi r20,lo8(10)
 1691 06f6 50E0      		ldi r21,hi8(10)
 1692 06f8 0E94 0000 		call itoa
 1693               	.LM292:
 1694 06fc 8CE0      		ldi r24,lo8(12)
 1695 06fe 64E0      		ldi r22,lo8(4)
 1696 0700 0E94 0000 		call Lcd8_Set_Cursor
 1697               	.LM293:
 1698 0704 80E0      		ldi r24,lo8(.LC1)
 1699 0706 90E0      		ldi r25,hi8(.LC1)
 1700 0708 0E94 0000 		call Lcd8_Write_String
 1701               	.LM294:
 1702 070c C601      		movw r24,r12
 1703 070e 0E94 0000 		call Lcd8_Write_String
 1704 0712 B02E      		mov r11,r16
 1705               	.LM295:
 1706 0714 802F      		mov r24,r16
 1707 0716 6A2D      		mov r22,r10
 1708 0718 0E94 0000 		call Lcd8_Set_Cursor
 1709               	.LM296:
 1710 071c 80E0      		ldi r24,lo8(.LC2)
 1711 071e 90E0      		ldi r25,hi8(.LC2)
 1712 0720 0E94 0000 		call Lcd8_Write_String
 1713 0724 84EF      		ldi r24,lo8(500)
 1714 0726 91E0      		ldi r25,hi8(500)
 1715               	.LVL65:
 1716               	.L148:
 1717               	.LBB186:
 1718               	.LBB193:
 1719               	.LBB192:
 1720               	.LBB191:
 1721               	.LM297:
 1722 0728 F401      		movw r30,r8
 1723               	.LVL66:
 1724               	/* #APP */
 1725               	 ;  105 "c:/winavr-20100110/lib/gcc/../../avr/include/util/delay_basic.h" 1
 1726 072a 3197      		1: sbiw r30,1
 1727 072c 01F4      		brne 1b
 1728               	 ;  0 "" 2
 1729               	/* #NOAPP */
 1730               	.LBE191:
 1731               	.LBE192:
 1732               	.LM298:
 1733 072e 0197      		sbiw r24,1
 1734               	.LM299:
 1735 0730 01F4      		brne .L148
 1736               	.LBE193:
 1737               	.LBE186:
 1738               	.LM300:
 1739 0732 8B2D      		mov r24,r11
 1740               	.LVL67:
 1741 0734 6A2D      		mov r22,r10
 1742 0736 0E94 0000 		call Lcd8_Set_Cursor
 1743               	.LVL68:
 1744               	.LM301:
 1745 073a 80E0      		ldi r24,lo8(.LC3)
 1746 073c 90E0      		ldi r25,hi8(.LC3)
 1747 073e 0E94 0000 		call Lcd8_Write_String
 1748               	.LM302:
 1749 0742 8CE0      		ldi r24,lo8(12)
 1750 0744 63E0      		ldi r22,lo8(3)
 1751 0746 0E94 0000 		call Lcd8_Set_Cursor
 1752               	.LM303:
 1753 074a 80E0      		ldi r24,lo8(.LC4)
 1754 074c 90E0      		ldi r25,hi8(.LC4)
 1755 074e 0E94 0000 		call Lcd8_Write_String
 1756               	.LM304:
 1757 0752 8CE0      		ldi r24,lo8(12)
 1758 0754 64E0      		ldi r22,lo8(4)
 1759 0756 0E94 0000 		call Lcd8_Set_Cursor
 1760               	.LM305:
 1761 075a 80E0      		ldi r24,lo8(.LC4)
 1762 075c 90E0      		ldi r25,hi8(.LC4)
 1763 075e 0E94 0000 		call Lcd8_Write_String
 1764               	.LM306:
 1765 0762 0F5F      		subi r16,lo8(-(1))
 1766 0764 1F4F      		sbci r17,hi8(-(1))
 1767 0766 0531      		cpi r16,21
 1768 0768 1105      		cpc r17,__zero_reg__
 1769 076a 01F0      		breq .+2
 1770 076c 00C0      		rjmp .L149
 1771               	.LBE185:
 1772               	.LM307:
 1773 076e 0894      		sec
 1774 0770 E11C      		adc r14,__zero_reg__
 1775 0772 F11C      		adc r15,__zero_reg__
 1776 0774 85E0      		ldi r24,lo8(5)
 1777 0776 E816      		cp r14,r24
 1778 0778 F104      		cpc r15,__zero_reg__
 1779 077a 04F0      		brlt .L155
 1780 077c 81E0      		ldi r24,lo8(1)
 1781 077e E82E      		mov r14,r24
 1782 0780 F12C      		mov r15,__zero_reg__
 1783               	.L155:
 1784 0782 01E0      		ldi r16,lo8(1)
 1785 0784 10E0      		ldi r17,hi8(1)
 1786               	.LBB194:
 1787               	.LM308:
 1788 0786 AE2C      		mov r10,r14
 1789 0788 00C0      		rjmp .L149
 1790               	.LBE194:
 1791               	.LBE184:
 1792               	.LFE25:
 1794               	.global	firstAddressForLCD
 1795               		.data
 1798               	firstAddressForLCD:
 1799 0015 00        		.byte	0
 1800 0016 40        		.byte	64
 1801 0017 14        		.byte	20
 1802 0018 54        		.byte	84
 1979               	.Letext0:
DEFINED SYMBOLS
                            *ABS*:00000000 main.c
C:\Users\Dragon\AppData\Local\Temp/cc5EK12n.s:2      *ABS*:0000003f __SREG__
C:\Users\Dragon\AppData\Local\Temp/cc5EK12n.s:3      *ABS*:0000003e __SP_H__
C:\Users\Dragon\AppData\Local\Temp/cc5EK12n.s:4      *ABS*:0000003d __SP_L__
C:\Users\Dragon\AppData\Local\Temp/cc5EK12n.s:5      *ABS*:00000034 __CCP__
C:\Users\Dragon\AppData\Local\Temp/cc5EK12n.s:6      *ABS*:00000000 __tmp_reg__
C:\Users\Dragon\AppData\Local\Temp/cc5EK12n.s:7      *ABS*:00000001 __zero_reg__
C:\Users\Dragon\AppData\Local\Temp/cc5EK12n.s:18     .text:00000000 pinChange
C:\Users\Dragon\AppData\Local\Temp/cc5EK12n.s:541    .text:00000280 Lcd8_Port
C:\Users\Dragon\AppData\Local\Temp/cc5EK12n.s:698    .text:0000035e Lcd8_Cmd
C:\Users\Dragon\AppData\Local\Temp/cc5EK12n.s:776    .text:000003a4 Lcd8_Clear
C:\Users\Dragon\AppData\Local\Temp/cc5EK12n.s:791    .text:000003ac Lcd8_Set_Cursor
C:\Users\Dragon\AppData\Local\Temp/cc5EK12n.s:1798   .data:00000015 firstAddressForLCD
C:\Users\Dragon\AppData\Local\Temp/cc5EK12n.s:815    .text:000003c0 Lcd8_Init
C:\Users\Dragon\AppData\Local\Temp/cc5EK12n.s:936    .text:00000424 Lcd8_Write_Char
C:\Users\Dragon\AppData\Local\Temp/cc5EK12n.s:1014   .text:0000046a Lcd8_Write_String
C:\Users\Dragon\AppData\Local\Temp/cc5EK12n.s:1043   .text:00000482 Lcd8_Shift_Right
C:\Users\Dragon\AppData\Local\Temp/cc5EK12n.s:1058   .text:0000048a Lcd8_Shift_Left
C:\Users\Dragon\AppData\Local\Temp/cc5EK12n.s:1073   .text:00000492 Lcd4_Port
C:\Users\Dragon\AppData\Local\Temp/cc5EK12n.s:1160   .text:00000506 Lcd4_Cmd
C:\Users\Dragon\AppData\Local\Temp/cc5EK12n.s:1238   .text:0000054c Lcd4_Clear
C:\Users\Dragon\AppData\Local\Temp/cc5EK12n.s:1256   .text:0000055a Lcd4_Set_Cursor
C:\Users\Dragon\AppData\Local\Temp/cc5EK12n.s:1303   .text:00000584 Lcd4_Init
C:\Users\Dragon\AppData\Local\Temp/cc5EK12n.s:1405   .text:000005e0 Lcd4_Write_Char
C:\Users\Dragon\AppData\Local\Temp/cc5EK12n.s:1539   .text:0000065a Lcd4_Write_String
C:\Users\Dragon\AppData\Local\Temp/cc5EK12n.s:1568   .text:00000672 Lcd4_Shift_Right
C:\Users\Dragon\AppData\Local\Temp/cc5EK12n.s:1586   .text:00000680 Lcd4_Shift_Left
C:\Users\Dragon\AppData\Local\Temp/cc5EK12n.s:1616   .text:0000068e main

UNDEFINED SYMBOLS
itoa
__do_copy_data
